target datalayout = "e-m:e-p270:32:32-p271:32:32-p272:64:64-i64:64-i128:128-f80:128-n8:16:32:64-S128"
target triple = "x86_64-pc-linux-gnu"

%union.SourceSpan = type { i64 }
%struct.Expr_ = type { ptr, %union.SourceSpan, i16, %union.anon.61 }
%union.anon.61 = type { %struct.ExprAnySwitch }
%struct.ExprAnySwitch = type { i8, %union.anon.63 }
%union.anon.63 = type { %struct.anon.64 }
%struct.anon.64 = type { ptr, %union.SourceSpan, ptr }
%struct.Type_ = type { i32, ptr, ptr, ptr, %union.anon.86, ptr, ptr, %union.anon.88 }
%union.anon.86 = type { ptr }
%union.anon.88 = type { %struct.TypeFunction }
%struct.TypeFunction = type { ptr, ptr, ptr }
%struct.TypeInfo_ = type { i16, ptr, %union.SourceSpan, %union.anon.23 }
%union.anon.23 = type { %struct.anon.24 }
%struct.anon.24 = type { ptr, ptr }
%struct.Decl_ = type { ptr, ptr, %union.SourceSpan, i64, %union.anon, i32, %union.anon.0, i64, ptr, ptr, ptr, %union.anon.1 }
%union.anon = type { ptr }
%union.anon.0 = type { i16 }
%union.anon.1 = type { %struct.FuncDecl }
%struct.FuncDecl = type { i32, [4 x i8], %struct.Signature_, i32, i32, %union.anon.8 }
%struct.Signature_ = type <{ %struct.CalleeAttributes, i16, i8, i32, i32, [4 x i8], ptr }>
%struct.CalleeAttributes = type { i8 }
%union.anon.8 = type { %struct.anon.9 }
%struct.anon.9 = type { i16, %union.anon.10 }
%union.anon.10 = type { ptr }
%struct.anon.2 = type { ptr, ptr, %union.anon.3 }
%union.anon.3 = type { %struct.BitStructDecl }
%struct.BitStructDecl = type { ptr, ptr, i8 }
%struct.TypeArray = type { ptr, i32 }

@.str.33 = private unnamed_addr constant [36 x i8] c"FATAL ERROR %s -> in %s @ in %s:%d \00", align 1
@.str.34 = private unnamed_addr constant [22 x i8] c"Should be unreachable\00", align 1
@__func__.type_flatten = private unnamed_addr constant [13 x i8] c"type_flatten\00", align 1
@.str.95 = private unnamed_addr constant [118 x i8] c"generated/home/dtcxzyw/WorkSpace/Projects/compilers/llvm-opt-benchmark/bench/c3c/c3c/src/compiler/compiler_internal.h\00", align 1

; Function Attrs: nounwind uwtable
define internal ptr @type_flatten(ptr noundef %0) #0 {
  %2 = alloca ptr, align 8
  store ptr %0, ptr %2, align 8
  br label %3

3:                                                ; preds = %28, %1
  %4 = load ptr, ptr %2, align 8
  %5 = getelementptr inbounds %struct.Type_, ptr %4, i32 0, i32 1
  %6 = load ptr, ptr %5, align 8
  store ptr %6, ptr %2, align 8
  %7 = load ptr, ptr %2, align 8
  %8 = getelementptr inbounds %struct.Type_, ptr %7, i32 0, i32 0
  %9 = load i32, ptr %8, align 8
  switch i32 %9, label %26 [
    i32 32, label %10
    i32 40, label %19
    i32 31, label %23
  ]

10:                                               ; preds = %3
  %11 = load ptr, ptr %2, align 8
  %12 = getelementptr inbounds %struct.Type_, ptr %11, i32 0, i32 7
  %13 = load ptr, ptr %12, align 8
  %14 = getelementptr inbounds %struct.Decl_, ptr %13, i32 0, i32 11
  %15 = getelementptr inbounds %struct.anon.2, ptr %14, i32 0, i32 2
  %16 = load ptr, ptr %15, align 8
  %17 = getelementptr inbounds %struct.TypeInfo_, ptr %16, i32 0, i32 1
  %18 = load ptr, ptr %17, align 8
  store ptr %18, ptr %2, align 8
  br label %28

19:                                               ; preds = %3
  %20 = load ptr, ptr %2, align 8
  %21 = getelementptr inbounds %struct.Type_, ptr %20, i32 0, i32 7
  %22 = load ptr, ptr %21, align 8
  store ptr %22, ptr %2, align 8
  br label %28

23:                                               ; preds = %3
  br label %24

24:                                               ; preds = %23
  call void (ptr, ...) @error_exit(ptr noundef @.str.33, ptr noundef @.str.34, ptr noundef @__func__.type_flatten, ptr noundef @.str.95, i32 noundef 2984) #6
  unreachable

25:                                               ; No predecessors!
  br label %26

26:                                               ; preds = %25, %3
  %27 = load ptr, ptr %2, align 8
  ret ptr %27

28:                                               ; preds = %19, %10
  br label %3
}

; Function Attrs: nounwind uwtable
define internal zeroext i1 @expr_both_any_integer_or_integer_vector(ptr noundef %0, ptr noundef %1) #0 {
  %3 = alloca ptr, align 8
  %4 = alloca i32, align 4
  %5 = alloca ptr, align 8
  %6 = alloca i32, align 4
  %7 = alloca ptr, align 8
  %8 = alloca i32, align 4
  %9 = alloca ptr, align 8
  %10 = alloca i32, align 4
  %11 = alloca i1, align 1
  %12 = alloca ptr, align 8
  %13 = alloca ptr, align 8
  %14 = alloca ptr, align 8
  %15 = alloca ptr, align 8
  store ptr %0, ptr %12, align 8
  store ptr %1, ptr %13, align 8
  %16 = load ptr, ptr %12, align 8
  %17 = getelementptr inbounds %struct.Expr_, ptr %16, i32 0, i32 0
  %18 = load ptr, ptr %17, align 8
  %19 = call ptr @type_flatten(ptr noundef %18)
  store ptr %19, ptr %14, align 8
  %20 = load ptr, ptr %13, align 8
  %21 = getelementptr inbounds %struct.Expr_, ptr %20, i32 0, i32 0
  %22 = load ptr, ptr %21, align 8
  %23 = call ptr @type_flatten(ptr noundef %22)
  store ptr %23, ptr %15, align 8
  %24 = load ptr, ptr %14, align 8
  store ptr %24, ptr %3, align 8
  %25 = load ptr, ptr %3, align 8
  %26 = load i32, ptr %25, align 8
  store i32 %26, ptr %4, align 4
  %27 = load i32, ptr %4, align 4
  %28 = icmp eq i32 %27, 31
  br i1 %28, label %29, label %34

29:                                               ; preds = %2
  %30 = load ptr, ptr %3, align 8
  %31 = getelementptr inbounds %struct.Type_, ptr %30, i32 0, i32 1
  %32 = load ptr, ptr %31, align 8
  %33 = load i32, ptr %32, align 8
  store i32 %33, ptr %4, align 4
  br label %34

34:                                               ; preds = %29, %2
  %35 = load i32, ptr %4, align 4
  %36 = icmp uge i32 %35, 3
  br i1 %36, label %37, label %40

37:                                               ; preds = %34
  %38 = load i32, ptr %4, align 4
  %39 = icmp ule i32 %38, 12
  br label %40

40:                                               ; preds = %37, %34
  %41 = phi i1 [ false, %34 ], [ %39, %37 ]
  br i1 %41, label %42, label %62

42:                                               ; preds = %40
  %43 = load ptr, ptr %15, align 8
  store ptr %43, ptr %5, align 8
  %44 = load ptr, ptr %5, align 8
  %45 = load i32, ptr %44, align 8
  store i32 %45, ptr %6, align 4
  %46 = load i32, ptr %6, align 4
  %47 = icmp eq i32 %46, 31
  br i1 %47, label %48, label %53

48:                                               ; preds = %42
  %49 = load ptr, ptr %5, align 8
  %50 = getelementptr inbounds %struct.Type_, ptr %49, i32 0, i32 1
  %51 = load ptr, ptr %50, align 8
  %52 = load i32, ptr %51, align 8
  store i32 %52, ptr %6, align 4
  br label %53

53:                                               ; preds = %48, %42
  %54 = load i32, ptr %6, align 4
  %55 = icmp uge i32 %54, 3
  br i1 %55, label %56, label %59

56:                                               ; preds = %53
  %57 = load i32, ptr %6, align 4
  %58 = icmp ule i32 %57, 12
  br label %59

59:                                               ; preds = %56, %53
  %60 = phi i1 [ false, %53 ], [ %58, %56 ]
  br i1 %60, label %61, label %62

61:                                               ; preds = %59
  store i1 true, ptr %11, align 1
  br label %119

62:                                               ; preds = %59, %40
  %63 = load ptr, ptr %14, align 8
  %64 = getelementptr inbounds %struct.Type_, ptr %63, i32 0, i32 0
  %65 = load i32, ptr %64, align 8
  %66 = icmp ne i32 %65, 37
  br i1 %66, label %72, label %67

67:                                               ; preds = %62
  %68 = load ptr, ptr %15, align 8
  %69 = getelementptr inbounds %struct.Type_, ptr %68, i32 0, i32 0
  %70 = load i32, ptr %69, align 8
  %71 = icmp ne i32 %70, 37
  br i1 %71, label %72, label %73

72:                                               ; preds = %67, %62
  store i1 false, ptr %11, align 1
  br label %119

73:                                               ; preds = %67
  %74 = load ptr, ptr %14, align 8
  %75 = getelementptr inbounds %struct.Type_, ptr %74, i32 0, i32 7
  %76 = getelementptr inbounds %struct.TypeArray, ptr %75, i32 0, i32 0
  %77 = load ptr, ptr %76, align 8
  store ptr %77, ptr %7, align 8
  %78 = load ptr, ptr %7, align 8
  %79 = load i32, ptr %78, align 8
  store i32 %79, ptr %8, align 4
  %80 = load i32, ptr %8, align 4
  %81 = icmp eq i32 %80, 31
  br i1 %81, label %82, label %87

82:                                               ; preds = %73
  %83 = load ptr, ptr %7, align 8
  %84 = getelementptr inbounds %struct.Type_, ptr %83, i32 0, i32 1
  %85 = load ptr, ptr %84, align 8
  %86 = load i32, ptr %85, align 8
  store i32 %86, ptr %8, align 4
  br label %87

87:                                               ; preds = %82, %73
  %88 = load i32, ptr %8, align 4
  %89 = icmp uge i32 %88, 3
  br i1 %89, label %90, label %93

90:                                               ; preds = %87
  %91 = load i32, ptr %8, align 4
  %92 = icmp ule i32 %91, 12
  br label %93

93:                                               ; preds = %90, %87
  %94 = phi i1 [ false, %87 ], [ %92, %90 ]
  br i1 %94, label %95, label %117

95:                                               ; preds = %93
  %96 = load ptr, ptr %15, align 8
  %97 = getelementptr inbounds %struct.Type_, ptr %96, i32 0, i32 7
  %98 = getelementptr inbounds %struct.TypeArray, ptr %97, i32 0, i32 0
  %99 = load ptr, ptr %98, align 8
  store ptr %99, ptr %9, align 8
  %100 = load ptr, ptr %9, align 8
  %101 = load i32, ptr %100, align 8
  store i32 %101, ptr %10, align 4
  %102 = load i32, ptr %10, align 4
  %103 = icmp eq i32 %102, 31
  br i1 %103, label %104, label %109

104:                                              ; preds = %95
  %105 = load ptr, ptr %9, align 8
  %106 = getelementptr inbounds %struct.Type_, ptr %105, i32 0, i32 1
  %107 = load ptr, ptr %106, align 8
  %108 = load i32, ptr %107, align 8
  store i32 %108, ptr %10, align 4
  br label %109

109:                                              ; preds = %104, %95
  %110 = load i32, ptr %10, align 4
  %111 = icmp uge i32 %110, 3
  br i1 %111, label %112, label %115

112:                                              ; preds = %109
  %113 = load i32, ptr %10, align 4
  %114 = icmp ule i32 %113, 12
  br label %115

115:                                              ; preds = %112, %109
  %116 = phi i1 [ false, %109 ], [ %114, %112 ]
  br label %117

117:                                              ; preds = %115, %93
  %118 = phi i1 [ false, %93 ], [ %116, %115 ]
  store i1 %118, ptr %11, align 1
  br label %119

119:                                              ; preds = %117, %72, %61
  %120 = load i1, ptr %11, align 1
  ret i1 %120
}