; Function Attrs: nounwind uwtable
define internal fastcc zeroext i1 @expr_both_any_integer_or_integer_vector(ptr nocapture readonly %.0.val, ptr nocapture noundef readonly %0) unnamed_addr #0 {
  br label %2

2:                                                ; preds = %15, %1
  %.0.i = phi ptr [ %.0.val, %1 ], [ %.1.i, %15 ]
  %3 = getelementptr inbounds i8, ptr %.0.i, i64 8
  %4 = load ptr, ptr %3, align 8
  %5 = load i32, ptr %4, align 8
  switch i32 %5, label %type_flatten.exit [
    i32 32, label %6
    i32 40, label %12
    i32 31, label %14
  ]

6:                                                ; preds = %2
  %7 = getelementptr inbounds i8, ptr %4, i64 56
  %8 = load ptr, ptr %7, align 8
  %9 = getelementptr inbounds i8, ptr %8, i64 96
  %10 = load ptr, ptr %9, align 8
  %11 = getelementptr inbounds i8, ptr %10, i64 8
  br label %15

12:                                               ; preds = %2
  %13 = getelementptr inbounds i8, ptr %4, i64 56
  br label %15

14:                                               ; preds = %2
  tail call void (ptr, ...) @error_exit(ptr noundef nonnull @.str.33, ptr noundef nonnull @.str.34, ptr noundef nonnull @__func__.type_flatten, ptr noundef nonnull @.str.95, i32 noundef 2984) #14
  unreachable

15:                                               ; preds = %12, %6
  %.1.in.i = phi ptr [ %13, %12 ], [ %11, %6 ]
  %.1.i = load ptr, ptr %.1.in.i, align 8
  br label %2

type_flatten.exit:                                ; preds = %2, %type_flatten.exit.backedge
  %.0.i37.in = phi ptr [ %.0.i37.in.be, %type_flatten.exit.backedge ], [ %0, %2 ]
  %.0.i37 = load ptr, ptr %.0.i37.in, align 8
  %16 = getelementptr inbounds i8, ptr %.0.i37, i64 8
  %17 = load ptr, ptr %16, align 8
  %18 = load i32, ptr %17, align 8
  switch i32 %18, label %type_flatten.exit40 [
    i32 32, label %19
    i32 40, label %25
    i32 31, label %27
  ]

19:                                               ; preds = %type_flatten.exit
  %20 = getelementptr inbounds i8, ptr %17, i64 56
  %21 = load ptr, ptr %20, align 8
  %22 = getelementptr inbounds i8, ptr %21, i64 96
  %23 = load ptr, ptr %22, align 8
  %24 = getelementptr inbounds i8, ptr %23, i64 8
  br label %type_flatten.exit.backedge

25:                                               ; preds = %type_flatten.exit
  %26 = getelementptr inbounds i8, ptr %17, i64 56
  br label %type_flatten.exit.backedge

type_flatten.exit.backedge:                       ; preds = %25, %19
  %.0.i37.in.be = phi ptr [ %26, %25 ], [ %24, %19 ]
  br label %type_flatten.exit

27:                                               ; preds = %type_flatten.exit
  tail call void (ptr, ...) @error_exit(ptr noundef nonnull @.str.33, ptr noundef nonnull @.str.34, ptr noundef nonnull @__func__.type_flatten, ptr noundef nonnull @.str.95, i32 noundef 2984) #14
  unreachable

type_flatten.exit40:                              ; preds = %type_flatten.exit
  %28 = icmp eq i32 %5, 31
  br i1 %28, label %29, label %33

29:                                               ; preds = %type_flatten.exit40
  %30 = getelementptr inbounds i8, ptr %4, i64 8
  %31 = load ptr, ptr %30, align 8
  %32 = load i32, ptr %31, align 8
  br label %33

33:                                               ; preds = %29, %type_flatten.exit40
  %.0 = phi i32 [ %32, %29 ], [ %5, %type_flatten.exit40 ]
  %34 = add i32 %.0, -3
  %35 = icmp ult i32 %34, 10
  %36 = add i32 %18, -3
  %37 = icmp ult i32 %36, 10
  %or.cond = and i1 %37, %35
  br i1 %or.cond, label %63, label %38

38:                                               ; preds = %33
  %.not = icmp eq i32 %5, 37
  %.not36 = icmp eq i32 %18, 37
  %or.cond2 = and i1 %.not, %.not36
  br i1 %or.cond2, label %39, label %63

39:                                               ; preds = %38
  %40 = getelementptr inbounds i8, ptr %4, i64 56
  %41 = load ptr, ptr %40, align 8
  %42 = load i32, ptr %41, align 8
  %43 = icmp eq i32 %42, 31
  br i1 %43, label %44, label %48

44:                                               ; preds = %39
  %45 = getelementptr inbounds i8, ptr %41, i64 8
  %46 = load ptr, ptr %45, align 8
  %47 = load i32, ptr %46, align 8
  br label %48

48:                                               ; preds = %44, %39
  %.029 = phi i32 [ %47, %44 ], [ %42, %39 ]
  %49 = add i32 %.029, -3
  %50 = icmp ult i32 %49, 10
  br i1 %50, label %51, label %63

51:                                               ; preds = %48
  %52 = getelementptr inbounds i8, ptr %17, i64 56
  %53 = load ptr, ptr %52, align 8
  %54 = load i32, ptr %53, align 8
  %55 = icmp eq i32 %54, 31
  br i1 %55, label %56, label %60

56:                                               ; preds = %51
  %57 = getelementptr inbounds i8, ptr %53, i64 8
  %58 = load ptr, ptr %57, align 8
  %59 = load i32, ptr %58, align 8
  br label %60

60:                                               ; preds = %56, %51
  %.030 = phi i32 [ %59, %56 ], [ %54, %51 ]
  %61 = add i32 %.030, -3
  %62 = icmp ult i32 %61, 10
  br label %63

63:                                               ; preds = %33, %48, %60, %38
  %.031 = phi i1 [ false, %38 ], [ false, %48 ], [ %62, %60 ], [ true, %33 ]
  ret i1 %.031
}